target datalayout = "e-m:e-p270:32:32-p271:32:32-p272:64:64-i64:64-i128:128-f80:128-n8:16:32:64-S128"
target triple = "x86_64-pc-linux-gnu"

%struct.OnigMatchParamStruct = type { i32, i64, i64, ptr, ptr, ptr, i32, ptr, i32 }

@MatchStackLimit = internal global i32 0, align 4
@RetryLimitInMatch = internal global i64 10000000, align 8
@RetryLimitInSearch = internal global i64 0, align 8
@DefaultProgressCallout = internal global ptr null, align 8
@DefaultRetractionCallout = internal global ptr null, align 8

; Function Attrs: nounwind uwtable
define dso_local void @onig_free_match_param_content(ptr noundef %0) #0 {
  %2 = alloca ptr, align 8
  store ptr %0, ptr %2, align 8, !tbaa !4
  %3 = load ptr, ptr %2, align 8, !tbaa !4
  %4 = getelementptr inbounds nuw %struct.OnigMatchParamStruct, ptr %3, i32 0, i32 7
  %5 = load ptr, ptr %4, align 8, !tbaa !43
  %6 = icmp ne ptr %5, null
  br i1 %6, label %7, label %13

7:                                                ; preds = %1
  %8 = load ptr, ptr %2, align 8, !tbaa !4
  %9 = getelementptr inbounds nuw %struct.OnigMatchParamStruct, ptr %8, i32 0, i32 7
  %10 = load ptr, ptr %9, align 8, !tbaa !43
  call void @free(ptr noundef %10) #9
  %11 = load ptr, ptr %2, align 8, !tbaa !4
  %12 = getelementptr inbounds nuw %struct.OnigMatchParamStruct, ptr %11, i32 0, i32 7
  store ptr null, ptr %12, align 8, !tbaa !43
  br label %13

13:                                               ; preds = %7, %1
  ret void
}

; Function Attrs: nounwind uwtable
define dso_local i32 @onig_initialize_match_param(ptr noundef %0) #0 {
  %2 = alloca ptr, align 8
  store ptr %0, ptr %2, align 8, !tbaa !4
  %3 = load i32, ptr @MatchStackLimit, align 4, !tbaa !9
  %4 = load ptr, ptr %2, align 8, !tbaa !4
  %5 = getelementptr inbounds nuw %struct.OnigMatchParamStruct, ptr %4, i32 0, i32 0
  store i32 %3, ptr %5, align 8, !tbaa !11
  %6 = load i64, ptr @RetryLimitInMatch, align 8, !tbaa !14
  %7 = load ptr, ptr %2, align 8, !tbaa !4
  %8 = getelementptr inbounds nuw %struct.OnigMatchParamStruct, ptr %7, i32 0, i32 1
  store i64 %6, ptr %8, align 8, !tbaa !15
  %9 = load i64, ptr @RetryLimitInSearch, align 8, !tbaa !14
  %10 = load ptr, ptr %2, align 8, !tbaa !4
  %11 = getelementptr inbounds nuw %struct.OnigMatchParamStruct, ptr %10, i32 0, i32 2
  store i64 %9, ptr %11, align 8, !tbaa !16
  %12 = load ptr, ptr %2, align 8, !tbaa !4
  %13 = getelementptr inbounds nuw %struct.OnigMatchParamStruct, ptr %12, i32 0, i32 3
  store ptr null, ptr %13, align 8, !tbaa !20
  %14 = load ptr, ptr @DefaultProgressCallout, align 8, !tbaa !17
  %15 = load ptr, ptr %2, align 8, !tbaa !4
  %16 = getelementptr inbounds nuw %struct.OnigMatchParamStruct, ptr %15, i32 0, i32 4
  store ptr %14, ptr %16, align 8, !tbaa !18
  %17 = load ptr, ptr @DefaultRetractionCallout, align 8, !tbaa !17
  %18 = load ptr, ptr %2, align 8, !tbaa !4
  %19 = getelementptr inbounds nuw %struct.OnigMatchParamStruct, ptr %18, i32 0, i32 5
  store ptr %17, ptr %19, align 8, !tbaa !19
  %20 = load ptr, ptr %2, align 8, !tbaa !4
  %21 = getelementptr inbounds nuw %struct.OnigMatchParamStruct, ptr %20, i32 0, i32 6
  store i32 0, ptr %21, align 8, !tbaa !42
  %22 = load ptr, ptr %2, align 8, !tbaa !4
  %23 = getelementptr inbounds nuw %struct.OnigMatchParamStruct, ptr %22, i32 0, i32 7
  store ptr null, ptr %23, align 8, !tbaa !43
  %24 = load ptr, ptr %2, align 8, !tbaa !4
  %25 = getelementptr inbounds nuw %struct.OnigMatchParamStruct, ptr %24, i32 0, i32 8
  store i32 0, ptr %25, align 8, !tbaa !44
  ret i32 0
}

; Function Attrs: nounwind uwtable
define dso_local i32 @onig_search(ptr noundef %0, ptr noundef %1, ptr noundef %2, ptr noundef %3, ptr noundef %4, ptr noundef %5, i32 noundef %6) #0 {
  %8 = alloca ptr, align 8
  %9 = alloca ptr, align 8
  %10 = alloca ptr, align 8
  %11 = alloca ptr, align 8
  %12 = alloca ptr, align 8
  %13 = alloca ptr, align 8
  %14 = alloca i32, align 4
  %15 = alloca i32, align 4
  %16 = alloca %struct.OnigMatchParamStruct, align 8
  %17 = alloca ptr, align 8
  store ptr %0, ptr %8, align 8, !tbaa !57
  store ptr %1, ptr %9, align 8, !tbaa !60
  store ptr %2, ptr %10, align 8, !tbaa !60
  store ptr %3, ptr %11, align 8, !tbaa !60
  store ptr %4, ptr %12, align 8, !tbaa !60
  store ptr %5, ptr %13, align 8, !tbaa !21
  store i32 %6, ptr %14, align 4, !tbaa !9
  call void @llvm.lifetime.start.p0(i64 4, ptr %15) #9
  call void @llvm.lifetime.start.p0(i64 72, ptr %16) #9
  call void @llvm.lifetime.start.p0(i64 8, ptr %17) #9
  %18 = call i32 @onig_initialize_match_param(ptr noundef %16)
  %19 = load ptr, ptr %12, align 8, !tbaa !60
  %20 = load ptr, ptr %11, align 8, !tbaa !60
  %21 = icmp ugt ptr %19, %20
  br i1 %21, label %22, label %24

22:                                               ; preds = %7
  %23 = load ptr, ptr %12, align 8, !tbaa !60
  store ptr %23, ptr %17, align 8, !tbaa !60
  br label %26

24:                                               ; preds = %7
  %25 = load ptr, ptr %10, align 8, !tbaa !60
  store ptr %25, ptr %17, align 8, !tbaa !60
  br label %26

26:                                               ; preds = %24, %22
  %27 = load ptr, ptr %8, align 8, !tbaa !57
  %28 = load ptr, ptr %9, align 8, !tbaa !60
  %29 = load ptr, ptr %10, align 8, !tbaa !60
  %30 = load ptr, ptr %11, align 8, !tbaa !60
  %31 = load ptr, ptr %12, align 8, !tbaa !60
  %32 = load ptr, ptr %17, align 8, !tbaa !60
  %33 = load ptr, ptr %13, align 8, !tbaa !21
  %34 = load i32, ptr %14, align 4, !tbaa !9
  %35 = call i32 @search_in_range(ptr noundef %27, ptr noundef %28, ptr noundef %29, ptr noundef %30, ptr noundef %31, ptr noundef %32, ptr noundef %33, i32 noundef %34, ptr noundef %16)
  store i32 %35, ptr %15, align 4, !tbaa !9
  call void @onig_free_match_param_content(ptr noundef %16)
  %36 = load i32, ptr %15, align 4, !tbaa !9
  call void @llvm.lifetime.end.p0(i64 8, ptr %17) #9
  call void @llvm.lifetime.end.p0(i64 72, ptr %16) #9
  call void @llvm.lifetime.end.p0(i64 4, ptr %15) #9
  ret i32 %36
}