; Function Attrs: nounwind uwtable
define dso_local i32 @onig_search(ptr noundef %0, ptr noundef %1, ptr noundef %2, ptr noundef %3, ptr noundef %4, ptr noundef %5, i32 noundef %6) local_unnamed_addr #4 {
  %8 = alloca %struct.OnigMatchParamStruct, align 8
  call void @llvm.lifetime.start.p0(i64 72, ptr nonnull %8) #30
  %9 = load i32, ptr @MatchStackLimit, align 4, !tbaa !24
  store i32 %9, ptr %8, align 8, !tbaa !4
  %10 = load i64, ptr @RetryLimitInMatch, align 8, !tbaa !39
  %11 = getelementptr inbounds nuw i8, ptr %8, i64 8
  store i64 %10, ptr %11, align 8, !tbaa !11
  %12 = load i64, ptr @RetryLimitInSearch, align 8, !tbaa !39
  %13 = getelementptr inbounds nuw i8, ptr %8, i64 16
  store i64 %12, ptr %13, align 8, !tbaa !12
  %14 = getelementptr inbounds nuw i8, ptr %8, i64 24
  store ptr null, ptr %14, align 8, !tbaa !15
  %15 = load ptr, ptr @DefaultProgressCallout, align 8, !tbaa !20
  %16 = getelementptr inbounds nuw i8, ptr %8, i64 32
  store ptr %15, ptr %16, align 8, !tbaa !13
  %17 = load ptr, ptr @DefaultRetractionCallout, align 8, !tbaa !20
  %18 = getelementptr inbounds nuw i8, ptr %8, i64 40
  store ptr %17, ptr %18, align 8, !tbaa !14
  %19 = getelementptr inbounds nuw i8, ptr %8, i64 48
  store i32 0, ptr %19, align 8, !tbaa !40
  %20 = getelementptr inbounds nuw i8, ptr %8, i64 56
  store ptr null, ptr %20, align 8, !tbaa !41
  %21 = getelementptr inbounds nuw i8, ptr %8, i64 64
  store i32 0, ptr %21, align 8, !tbaa !42
  %22 = icmp ugt ptr %4, %3
  %. = select i1 %22, ptr %4, ptr %2
  %23 = call fastcc i32 @search_in_range(ptr noundef %0, ptr noundef %1, ptr noundef %2, ptr noundef %3, ptr noundef %4, ptr noundef %., ptr noundef %5, i32 noundef %6, ptr noundef nonnull %8)
  %24 = load ptr, ptr %20, align 8, !tbaa !41
  %.not.i = icmp eq ptr %24, null
  br i1 %.not.i, label %onig_free_match_param_content.exit, label %25

25:                                               ; preds = %7
  call void @free(ptr noundef nonnull %24) #30
  br label %onig_free_match_param_content.exit

onig_free_match_param_content.exit:               ; preds = %7, %25
  call void @llvm.lifetime.end.p0(i64 72, ptr nonnull %8) #30
  ret i32 %23
}